; ModuleID = '57/1216.c'
source_filename = "57/1216.c"
target datalayout = "e-m:e-p270:32:32-p271:32:32-p272:64:64-i64:64-f80:128-n8:16:32:64-S128"
target triple = "x86_64-pc-linux-gnu"

@.str = private unnamed_addr constant [3 x i8] c"%d\00", align 1

; Function Attrs: noinline nounwind uwtable
define dso_local i32 @main() #0 {
  %1 = alloca i32, align 4
  %2 = alloca i32, align 4
  %3 = alloca [50 x i8], align 16
  %4 = alloca i32, align 4
  store i32 0, i32* %1, align 4
  %5 = call i32 (i8*, ...) @__isoc99_scanf(i8* getelementptr inbounds ([3 x i8], [3 x i8]* @.str, i64 0, i64 0), i32* %2)
  store i32 0, i32* %4, align 4
  br label %6

6:                                                ; preds = %52, %0
  %7 = load i32, i32* %4, align 4
  %8 = load i32, i32* %2, align 4
  %9 = icmp sle i32 %7, %8
  br i1 %9, label %10, label %55

10:                                               ; preds = %6
  %11 = getelementptr inbounds [50 x i8], [50 x i8]* %3, i64 0, i64 0
  %12 = call i32 (i8*, ...) bitcast (i32 (...)* @gets to i32 (i8*, ...)*)(i8* %11)
  %13 = getelementptr inbounds [50 x i8], [50 x i8]* %3, i64 0, i64 0
  %14 = call i64 @strlen(i8* %13) #3
  %15 = sub i64 %14, 1
  %16 = getelementptr inbounds [50 x i8], [50 x i8]* %3, i64 0, i64 %15
  %17 = load i8, i8* %16, align 1
  %18 = sext i8 %17 to i32
  %19 = icmp eq i32 %18, 114
  br i1 %19, label %28, label %20

20:                                               ; preds = %10
  %21 = getelementptr inbounds [50 x i8], [50 x i8]* %3, i64 0, i64 0
  %22 = call i64 @strlen(i8* %21) #3
  %23 = sub i64 %22, 1
  %24 = getelementptr inbounds [50 x i8], [50 x i8]* %3, i64 0, i64 %23
  %25 = load i8, i8* %24, align 1
  %26 = sext i8 %25 to i32
  %27 = icmp eq i32 %26, 121
  br i1 %27, label %28, label %35

28:                                               ; preds = %20, %10
  %29 = getelementptr inbounds [50 x i8], [50 x i8]* %3, i64 0, i64 0
  %30 = call i64 @strlen(i8* %29) #3
  %31 = sub i64 %30, 2
  %32 = getelementptr inbounds [50 x i8], [50 x i8]* %3, i64 0, i64 %31
  store i8 0, i8* %32, align 1
  %33 = getelementptr inbounds [50 x i8], [50 x i8]* %3, i64 0, i64 0
  %34 = call i32 @puts(i8* %33)
  br label %51

35:                                               ; preds = %20
  %36 = getelementptr inbounds [50 x i8], [50 x i8]* %3, i64 0, i64 0
  %37 = call i64 @strlen(i8* %36) #3
  %38 = sub i64 %37, 1
  %39 = getelementptr inbounds [50 x i8], [50 x i8]* %3, i64 0, i64 %38
  %40 = load i8, i8* %39, align 1
  %41 = sext i8 %40 to i32
  %42 = icmp eq i32 %41, 103
  br i1 %42, label %43, label %50

43:                                               ; preds = %35
  %44 = getelementptr inbounds [50 x i8], [50 x i8]* %3, i64 0, i64 0
  %45 = call i64 @strlen(i8* %44) #3
  %46 = sub i64 %45, 3
  %47 = getelementptr inbounds [50 x i8], [50 x i8]* %3, i64 0, i64 %46
  store i8 0, i8* %47, align 1
  %48 = getelementptr inbounds [50 x i8], [50 x i8]* %3, i64 0, i64 0
  %49 = call i32 @puts(i8* %48)
  br label %50

50:                                               ; preds = %43, %35
  br label %51

51:                                               ; preds = %50, %28
  br label %52

52:                                               ; preds = %51
  %53 = load i32, i32* %4, align 4
  %54 = add nsw i32 %53, 1
  store i32 %54, i32* %4, align 4
  br label %6

55:                                               ; preds = %6
  ret i32 0
}

declare dso_local i32 @__isoc99_scanf(i8*, ...) #1

declare dso_local i32 @gets(...) #1

; Function Attrs: nounwind readonly
declare dso_local i64 @strlen(i8*) #2

declare dso_local i32 @puts(i8*) #1


!llvm.module.flags = !{!0}
!llvm.ident = !{!1}

!0 = !{i32 1, !"wchar_size", i32 4}
!1 = !{!"clang version 10.0.0-4ubuntu1 "}
